target datalayout = "e-m:e-p270:32:32-p271:32:32-p272:64:64-i64:64-i128:128-f80:128-n8:16:32:64-S128"
target triple = "x86_64-unknown-linux-gnu"

%"class.std::__cxx11::basic_string" = type { %"struct.std::__cxx11::basic_string<char>::_Alloc_hider", i64, %union.anon }
%"struct.std::__cxx11::basic_string<char>::_Alloc_hider" = type { ptr }
%union.anon = type { i64, [8 x i8] }
%"struct.glTF2::Object" = type { ptr, i32, i32, %"class.std::__cxx11::basic_string", %"class.std::__cxx11::basic_string", %"struct.glTF2::CustomExtension", %"struct.glTF2::Extras" }
%"struct.glTF2::CustomExtension" = type { %"class.std::__cxx11::basic_string", %"struct.glTFCommon::Nullable", %"struct.glTFCommon::Nullable.3", %"struct.glTFCommon::Nullable.5", %"struct.glTFCommon::Nullable.7", %"struct.glTFCommon::Nullable.9", [6 x i8], %"struct.glTFCommon::Nullable.10" }
%"struct.glTFCommon::Nullable" = type <{ %"class.std::__cxx11::basic_string", i8, [7 x i8] }>
%"struct.glTFCommon::Nullable.3" = type <{ double, i8, [7 x i8] }>
%"struct.glTFCommon::Nullable.5" = type <{ i64, i8, [7 x i8] }>
%"struct.glTFCommon::Nullable.7" = type <{ i64, i8, [7 x i8] }>
%"struct.glTFCommon::Nullable.9" = type { i8, i8 }
%"struct.glTFCommon::Nullable.10" = type <{ %"class.std::vector.11", i8, [7 x i8] }>
%"class.std::vector.11" = type { %"struct.std::_Vector_base.12" }
%"struct.std::_Vector_base.12" = type { %"struct.std::_Vector_base<glTF2::CustomExtension, std::allocator<glTF2::CustomExtension>>::_Vector_impl" }
%"struct.std::_Vector_base<glTF2::CustomExtension, std::allocator<glTF2::CustomExtension>>::_Vector_impl" = type { %"struct.std::_Vector_base<glTF2::CustomExtension, std::allocator<glTF2::CustomExtension>>::_Vector_impl_data" }
%"struct.std::_Vector_base<glTF2::CustomExtension, std::allocator<glTF2::CustomExtension>>::_Vector_impl_data" = type { ptr, ptr, ptr }
%"struct.glTF2::Extras" = type { %"class.std::vector.11" }
%"struct.std::_Vector_base.103" = type { %"struct.std::_Vector_base<glTF2::Node *, std::allocator<glTF2::Node *>>::_Vector_impl" }
%"struct.std::_Vector_base<glTF2::Node *, std::allocator<glTF2::Node *>>::_Vector_impl" = type { %"struct.std::_Vector_base<glTF2::Node *, std::allocator<glTF2::Node *>>::_Vector_impl_data" }
%"struct.std::_Vector_base<glTF2::Node *, std::allocator<glTF2::Node *>>::_Vector_impl_data" = type { ptr, ptr, ptr }
%"struct.std::_Vector_base.121" = type { %"struct.std::_Vector_base<glTF2::Skin *, std::allocator<glTF2::Skin *>>::_Vector_impl" }
%"struct.std::_Vector_base<glTF2::Skin *, std::allocator<glTF2::Skin *>>::_Vector_impl" = type { %"struct.std::_Vector_base<glTF2::Skin *, std::allocator<glTF2::Skin *>>::_Vector_impl_data" }
%"struct.std::_Vector_base<glTF2::Skin *, std::allocator<glTF2::Skin *>>::_Vector_impl_data" = type { ptr, ptr, ptr }
%"class.glTFCommon::Ref.213" = type <{ ptr, i32, [4 x i8] }>
%"struct.glTF2::Node" = type { %"struct.glTF2::Object", %"class.std::vector.191", %"class.std::vector.196", %"struct.glTFCommon::Nullable.201", %"struct.glTFCommon::Nullable.203", %"struct.glTFCommon::Nullable.205", %"struct.glTFCommon::Nullable.203", %"class.glTFCommon::Ref.207", %"class.glTFCommon::Ref.209", %"class.std::vector.191", %"class.glTFCommon::Ref.211", %"class.std::__cxx11::basic_string", %"class.glTFCommon::Ref.213" }
%"class.std::vector.196" = type { %"struct.std::_Vector_base.197" }
%"struct.std::_Vector_base.197" = type { %"struct.std::_Vector_base<glTFCommon::Ref<glTF2::Mesh>, std::allocator<glTFCommon::Ref<glTF2::Mesh>>>::_Vector_impl" }
%"struct.std::_Vector_base<glTFCommon::Ref<glTF2::Mesh>, std::allocator<glTFCommon::Ref<glTF2::Mesh>>>::_Vector_impl" = type { %"struct.std::_Vector_base<glTFCommon::Ref<glTF2::Mesh>, std::allocator<glTFCommon::Ref<glTF2::Mesh>>>::_Vector_impl_data" }
%"struct.std::_Vector_base<glTFCommon::Ref<glTF2::Mesh>, std::allocator<glTFCommon::Ref<glTF2::Mesh>>>::_Vector_impl_data" = type { ptr, ptr, ptr }
%"struct.glTFCommon::Nullable.201" = type <{ [16 x float], i8, [3 x i8] }>
%"struct.glTFCommon::Nullable.205" = type <{ [4 x float], i8, [3 x i8] }>
%"struct.glTFCommon::Nullable.203" = type <{ [3 x float], i8, [3 x i8] }>
%"class.glTFCommon::Ref.207" = type <{ ptr, i32, [4 x i8] }>
%"class.glTFCommon::Ref.209" = type <{ ptr, i32, [4 x i8] }>
%"class.std::vector.191" = type { %"struct.std::_Vector_base.192" }
%"struct.std::_Vector_base.192" = type { %"struct.std::_Vector_base<glTFCommon::Ref<glTF2::Node>, std::allocator<glTFCommon::Ref<glTF2::Node>>>::_Vector_impl" }
%"struct.std::_Vector_base<glTFCommon::Ref<glTF2::Node>, std::allocator<glTFCommon::Ref<glTF2::Node>>>::_Vector_impl" = type { %"struct.std::_Vector_base<glTFCommon::Ref<glTF2::Node>, std::allocator<glTFCommon::Ref<glTF2::Node>>>::_Vector_impl_data" }
%"struct.std::_Vector_base<glTFCommon::Ref<glTF2::Node>, std::allocator<glTFCommon::Ref<glTF2::Node>>>::_Vector_impl_data" = type { ptr, ptr, ptr }
%"class.glTFCommon::Ref.211" = type <{ ptr, i32, [4 x i8] }>
%"class.glTFCommon::Ref.227" = type <{ ptr, i32, [4 x i8] }>
%"struct.glTF2::Skin" = type { %"struct.glTF2::Object", %"struct.glTFCommon::Nullable.201", [4 x i8], %"class.glTFCommon::Ref.227", %"class.std::vector.191", %"class.std::__cxx11::basic_string" }

; Function Attrs: mustprogress nounwind uwtable
define linkonce_odr hidden noundef i64 @_ZNKSt6vectorIPN5glTF24NodeESaIS2_EE4sizeEv(ptr noundef nonnull align 8 dereferenceable(24) %this) #0 comdat align 2 {
entry:
  %this.addr = alloca ptr, align 8
  store ptr %this, ptr %this.addr, align 8
  %this1 = load ptr, ptr %this.addr, align 8
  %_M_impl = getelementptr inbounds %"struct.std::_Vector_base.103", ptr %this1, i32 0, i32 0
  %_M_finish = getelementptr inbounds %"struct.std::_Vector_base<glTF2::Node *, std::allocator<glTF2::Node *>>::_Vector_impl_data", ptr %_M_impl, i32 0, i32 1
  %0 = load ptr, ptr %_M_finish, align 8
  %_M_impl2 = getelementptr inbounds %"struct.std::_Vector_base.103", ptr %this1, i32 0, i32 0
  %_M_start = getelementptr inbounds %"struct.std::_Vector_base<glTF2::Node *, std::allocator<glTF2::Node *>>::_Vector_impl_data", ptr %_M_impl2, i32 0, i32 0
  %1 = load ptr, ptr %_M_start, align 8
  %sub.ptr.lhs.cast = ptrtoint ptr %0 to i64
  %sub.ptr.rhs.cast = ptrtoint ptr %1 to i64
  %sub.ptr.sub = sub i64 %sub.ptr.lhs.cast, %sub.ptr.rhs.cast
  %sub.ptr.div = sdiv exact i64 %sub.ptr.sub, 8
  ret i64 %sub.ptr.div
}

; Function Attrs: mustprogress nounwind uwtable
define linkonce_odr hidden noundef nonnull align 8 dereferenceable(8) ptr @_ZNSt6vectorIPN5glTF24NodeESaIS2_EEixEm(ptr noundef nonnull align 8 dereferenceable(24) %this, i64 noundef %__n) #0 comdat align 2 {
entry:
  %this.addr = alloca ptr, align 8
  %__n.addr = alloca i64, align 8
  store ptr %this, ptr %this.addr, align 8
  store i64 %__n, ptr %__n.addr, align 8
  %this1 = load ptr, ptr %this.addr, align 8
  %_M_impl = getelementptr inbounds %"struct.std::_Vector_base.103", ptr %this1, i32 0, i32 0
  %_M_start = getelementptr inbounds %"struct.std::_Vector_base<glTF2::Node *, std::allocator<glTF2::Node *>>::_Vector_impl_data", ptr %_M_impl, i32 0, i32 0
  %0 = load ptr, ptr %_M_start, align 8
  %1 = load i64, ptr %__n.addr, align 8
  %add.ptr = getelementptr inbounds ptr, ptr %0, i64 %1
  ret ptr %add.ptr
}

; Function Attrs: mustprogress nounwind uwtable
define linkonce_odr hidden noundef nonnull align 8 dereferenceable(8) ptr @_ZNSt6vectorIPN5glTF24SkinESaIS2_EEixEm(ptr noundef nonnull align 8 dereferenceable(24) %this, i64 noundef %__n) #0 comdat align 2 {
entry:
  %this.addr = alloca ptr, align 8
  %__n.addr = alloca i64, align 8
  store ptr %this, ptr %this.addr, align 8
  store i64 %__n, ptr %__n.addr, align 8
  %this1 = load ptr, ptr %this.addr, align 8
  %_M_impl = getelementptr inbounds %"struct.std::_Vector_base.121", ptr %this1, i32 0, i32 0
  %_M_start = getelementptr inbounds %"struct.std::_Vector_base<glTF2::Skin *, std::allocator<glTF2::Skin *>>::_Vector_impl_data", ptr %_M_impl, i32 0, i32 0
  %0 = load ptr, ptr %_M_start, align 8
  %1 = load i64, ptr %__n.addr, align 8
  %add.ptr = getelementptr inbounds ptr, ptr %0, i64 %1
  ret ptr %add.ptr
}

; Function Attrs: mustprogress nounwind uwtable
define linkonce_odr hidden noundef zeroext i1 @_ZNK10glTFCommon3RefIN5glTF24NodeEEcvbEv(ptr noundef nonnull align 8 dereferenceable(12) %this) #0 comdat align 2 {
entry:
  %this.addr = alloca ptr, align 8
  store ptr %this, ptr %this.addr, align 8
  %this1 = load ptr, ptr %this.addr, align 8
  %vector = getelementptr inbounds %"class.glTFCommon::Ref.213", ptr %this1, i32 0, i32 0
  %0 = load ptr, ptr %vector, align 8
  %cmp = icmp ne ptr %0, null
  br i1 %cmp, label %land.rhs, label %land.end

land.rhs:                                         ; preds = %entry
  %index = getelementptr inbounds %"class.glTFCommon::Ref.213", ptr %this1, i32 0, i32 1
  %1 = load i32, ptr %index, align 8
  %conv = zext i32 %1 to i64
  %vector2 = getelementptr inbounds %"class.glTFCommon::Ref.213", ptr %this1, i32 0, i32 0
  %2 = load ptr, ptr %vector2, align 8
  %call = call noundef i64 @_ZNKSt6vectorIPN5glTF24NodeESaIS2_EE4sizeEv(ptr noundef nonnull align 8 dereferenceable(24) %2) #18
  %cmp3 = icmp ult i64 %conv, %call
  br label %land.end

land.end:                                         ; preds = %land.rhs, %entry
  %3 = phi i1 [ false, %entry ], [ %cmp3, %land.rhs ]
  ret i1 %3
}

; Function Attrs: mustprogress nounwind uwtable
define linkonce_odr hidden noundef ptr @_ZN10glTFCommon3RefIN5glTF24NodeEEptEv(ptr noundef nonnull align 8 dereferenceable(12) %this) #0 comdat align 2 {
entry:
  %this.addr = alloca ptr, align 8
  store ptr %this, ptr %this.addr, align 8
  %this1 = load ptr, ptr %this.addr, align 8
  %vector = getelementptr inbounds %"class.glTFCommon::Ref.213", ptr %this1, i32 0, i32 0
  %0 = load ptr, ptr %vector, align 8
  %index = getelementptr inbounds %"class.glTFCommon::Ref.213", ptr %this1, i32 0, i32 1
  %1 = load i32, ptr %index, align 8
  %conv = zext i32 %1 to i64
  %call = call noundef nonnull align 8 dereferenceable(8) ptr @_ZNSt6vectorIPN5glTF24NodeESaIS2_EEixEm(ptr noundef nonnull align 8 dereferenceable(24) %0, i64 noundef %conv) #18
  %2 = load ptr, ptr %call, align 8
  ret ptr %2
}

; Function Attrs: mustprogress nounwind uwtable
define linkonce_odr hidden noundef nonnull align 8 dereferenceable(12) ptr @_ZNSt6vectorIN10glTFCommon3RefIN5glTF24NodeEEESaIS4_EEixEm(ptr noundef nonnull align 8 dereferenceable(24) %this, i64 noundef %__n) #0 comdat align 2 {
entry:
  %this.addr = alloca ptr, align 8
  %__n.addr = alloca i64, align 8
  store ptr %this, ptr %this.addr, align 8
  store i64 %__n, ptr %__n.addr, align 8
  %this1 = load ptr, ptr %this.addr, align 8
  %_M_impl = getelementptr inbounds %"struct.std::_Vector_base.192", ptr %this1, i32 0, i32 0
  %_M_start = getelementptr inbounds %"struct.std::_Vector_base<glTFCommon::Ref<glTF2::Node>, std::allocator<glTFCommon::Ref<glTF2::Node>>>::_Vector_impl_data", ptr %_M_impl, i32 0, i32 0
  %0 = load ptr, ptr %_M_start, align 8
  %1 = load i64, ptr %__n.addr, align 8
  %add.ptr = getelementptr inbounds %"class.glTFCommon::Ref.213", ptr %0, i64 %1
  ret ptr %add.ptr
}

; Function Attrs: mustprogress nounwind uwtable
define linkonce_odr hidden noundef ptr @_ZN10glTFCommon3RefIN5glTF24SkinEEptEv(ptr noundef nonnull align 8 dereferenceable(12) %this) #0 comdat align 2 {
entry:
  %this.addr = alloca ptr, align 8
  store ptr %this, ptr %this.addr, align 8
  %this1 = load ptr, ptr %this.addr, align 8
  %vector = getelementptr inbounds %"class.glTFCommon::Ref.211", ptr %this1, i32 0, i32 0
  %0 = load ptr, ptr %vector, align 8
  %index = getelementptr inbounds %"class.glTFCommon::Ref.211", ptr %this1, i32 0, i32 1
  %1 = load i32, ptr %index, align 8
  %conv = zext i32 %1 to i64
  %call = call noundef nonnull align 8 dereferenceable(8) ptr @_ZNSt6vectorIPN5glTF24SkinESaIS2_EEixEm(ptr noundef nonnull align 8 dereferenceable(24) %0, i64 noundef %conv) #18
  %2 = load ptr, ptr %call, align 8
  ret ptr %2
}

; Function Attrs: mustprogress nounwind uwtable
define linkonce_odr hidden void @_ZN10glTFCommon3RefIN5glTF24NodeEEC2Ev(ptr noundef nonnull align 8 dereferenceable(12) %this) unnamed_addr #0 comdat align 2 {
entry:
  %this.addr = alloca ptr, align 8
  store ptr %this, ptr %this.addr, align 8
  %this1 = load ptr, ptr %this.addr, align 8
  %vector = getelementptr inbounds %"class.glTFCommon::Ref.213", ptr %this1, i32 0, i32 0
  store ptr null, ptr %vector, align 8
  %index = getelementptr inbounds %"class.glTFCommon::Ref.213", ptr %this1, i32 0, i32 1
  store i32 0, ptr %index, align 8
  ret void
}

; Function Attrs: mustprogress uwtable
define hidden { ptr, i32 } @_Z21FindSkeletonRootJointRN10glTFCommon3RefIN5glTF24SkinEEE(ptr noundef nonnull align 8 dereferenceable(12) %skinRef) #3 {
entry:
  %retval = alloca %"class.glTFCommon::Ref.213", align 8
  %skinRef.addr = alloca ptr, align 8
  %startNodeRef = alloca %"class.glTFCommon::Ref.213", align 8
  store ptr %skinRef, ptr %skinRef.addr, align 8
  call void @_ZN10glTFCommon3RefIN5glTF24NodeEEC2Ev(ptr noundef nonnull align 8 dereferenceable(12) %startNodeRef)
  call void @_ZN10glTFCommon3RefIN5glTF24NodeEEC2Ev(ptr noundef nonnull align 8 dereferenceable(12) %retval)
  %0 = load ptr, ptr %skinRef.addr, align 8
  %call = call noundef ptr @_ZN10glTFCommon3RefIN5glTF24SkinEEptEv(ptr noundef nonnull align 8 dereferenceable(12) %0)
  %jointNames = getelementptr inbounds %"struct.glTF2::Skin", ptr %call, i32 0, i32 4
  %call1 = call noundef nonnull align 8 dereferenceable(12) ptr @_ZNSt6vectorIN10glTFCommon3RefIN5glTF24NodeEEESaIS4_EEixEm(ptr noundef nonnull align 8 dereferenceable(24) %jointNames, i64 noundef 0) #18
  call void @llvm.memcpy.p0.p0.i64(ptr align 8 %startNodeRef, ptr align 8 %call1, i64 12, i1 false)
  %1 = load ptr, ptr %skinRef.addr, align 8
  %call2 = call noundef ptr @_ZN10glTFCommon3RefIN5glTF24SkinEEptEv(ptr noundef nonnull align 8 dereferenceable(12) %1)
  %jointNames3 = getelementptr inbounds %"struct.glTF2::Skin", ptr %call2, i32 0, i32 4
  %call4 = call noundef nonnull align 8 dereferenceable(12) ptr @_ZNSt6vectorIN10glTFCommon3RefIN5glTF24NodeEEESaIS4_EEixEm(ptr noundef nonnull align 8 dereferenceable(24) %jointNames3, i64 noundef 0) #18
  call void @llvm.memcpy.p0.p0.i64(ptr align 8 %retval, ptr align 8 %call4, i64 12, i1 false)
  br label %do.body

do.body:                                          ; preds = %land.end, %entry
  call void @llvm.memcpy.p0.p0.i64(ptr align 8 %startNodeRef, ptr align 8 %retval, i64 12, i1 false)
  %call5 = call noundef ptr @_ZN10glTFCommon3RefIN5glTF24NodeEEptEv(ptr noundef nonnull align 8 dereferenceable(12) %startNodeRef)
  %parent = getelementptr inbounds %"struct.glTF2::Node", ptr %call5, i32 0, i32 12
  call void @llvm.memcpy.p0.p0.i64(ptr align 8 %retval, ptr align 8 %parent, i64 12, i1 false)
  br label %do.cond

do.cond:                                          ; preds = %do.body
  %call6 = call noundef zeroext i1 @_ZNK10glTFCommon3RefIN5glTF24NodeEEcvbEv(ptr noundef nonnull align 8 dereferenceable(12) %retval)
  br i1 %call6, label %land.rhs, label %land.end

land.rhs:                                         ; preds = %do.cond
  %call7 = call noundef ptr @_ZN10glTFCommon3RefIN5glTF24NodeEEptEv(ptr noundef nonnull align 8 dereferenceable(12) %retval)
  %jointName = getelementptr inbounds %"struct.glTF2::Node", ptr %call7, i32 0, i32 11
  %call8 = call noundef zeroext i1 @_ZNKSt7__cxx1112basic_stringIcSt11char_traitsIcESaIcEE5emptyEv(ptr noundef nonnull align 8 dereferenceable(32) %jointName) #18
  %lnot = xor i1 %call8, true
  br label %land.end

land.end:                                         ; preds = %land.rhs, %do.cond
  %2 = phi i1 [ false, %do.cond ], [ %lnot, %land.rhs ]
  br i1 %2, label %do.body, label %do.end, !llvm.loop !33

do.end:                                           ; preds = %land.end
  %3 = load { ptr, i32 }, ptr %retval, align 8
  ret { ptr, i32 } %3
}