; Function Attrs: mustprogress nounwind uwtable
define hidden { ptr, i32 } @_Z21FindSkeletonRootJointRN10glTFCommon3RefIN5glTF24SkinEEE(ptr nocapture noundef nonnull readonly align 8 dereferenceable(12) %skinRef) local_unnamed_addr #1 {
entry:
  %0 = load ptr, ptr %skinRef, align 8
  %index.i3 = getelementptr inbounds i8, ptr %skinRef, i64 8
  %1 = load i32, ptr %index.i3, align 8
  %conv.i = zext i32 %1 to i64
  %2 = load ptr, ptr %0, align 8
  %add.ptr.i.i = getelementptr inbounds ptr, ptr %2, i64 %conv.i
  %3 = load ptr, ptr %add.ptr.i.i, align 8
  %jointNames = getelementptr inbounds i8, ptr %3, i64 352
  %4 = load ptr, ptr %jointNames, align 8
  %startNodeRef.sroa.4.0..sroa_idx = getelementptr inbounds i8, ptr %4, i64 8
  %retval.sroa.0.0.copyload = load ptr, ptr %4, align 8
  %retval.sroa.7.0.copyload = load i32, ptr %startNodeRef.sroa.4.0..sroa_idx, align 8
  br label %do.body

do.body:                                          ; preds = %land.rhs, %entry
  %retval.sroa.7.0 = phi i32 [ %retval.sroa.7.0.copyload, %entry ], [ %retval.sroa.7.0.copyload19, %land.rhs ]
  %retval.sroa.0.0 = phi ptr [ %retval.sroa.0.0.copyload, %entry ], [ %retval.sroa.0.0.copyload18, %land.rhs ]
  %conv.i8 = zext i32 %retval.sroa.7.0 to i64
  %5 = load ptr, ptr %retval.sroa.0.0, align 8
  %add.ptr.i.i9 = getelementptr inbounds ptr, ptr %5, i64 %conv.i8
  %6 = load ptr, ptr %add.ptr.i.i9, align 8
  %parent = getelementptr inbounds i8, ptr %6, i64 536
  %retval.sroa.0.0.copyload18 = load ptr, ptr %parent, align 8
  %retval.sroa.7.0.parent.sroa_idx = getelementptr inbounds i8, ptr %6, i64 544
  %retval.sroa.7.0.copyload19 = load i32, ptr %retval.sroa.7.0.parent.sroa_idx, align 8
  %cmp.not.i = icmp eq ptr %retval.sroa.0.0.copyload18, null
  br i1 %cmp.not.i, label %do.end, label %_ZNK10glTFCommon3RefIN5glTF24NodeEEcvbEv.exit

_ZNK10glTFCommon3RefIN5glTF24NodeEEcvbEv.exit:    ; preds = %do.body
  %conv.i11 = zext i32 %retval.sroa.7.0.copyload19 to i64
  %_M_finish.i.i = getelementptr inbounds i8, ptr %retval.sroa.0.0.copyload18, i64 8
  %7 = load ptr, ptr %_M_finish.i.i, align 8
  %8 = load ptr, ptr %retval.sroa.0.0.copyload18, align 8
  %sub.ptr.lhs.cast.i.i = ptrtoint ptr %7 to i64
  %sub.ptr.rhs.cast.i.i = ptrtoint ptr %8 to i64
  %sub.ptr.sub.i.i = sub i64 %sub.ptr.lhs.cast.i.i, %sub.ptr.rhs.cast.i.i
  %sub.ptr.div.i.i = ashr exact i64 %sub.ptr.sub.i.i, 3
  %cmp3.i = icmp ugt i64 %sub.ptr.div.i.i, %conv.i11
  br i1 %cmp3.i, label %land.rhs, label %do.end

land.rhs:                                         ; preds = %_ZNK10glTFCommon3RefIN5glTF24NodeEEcvbEv.exit
  %add.ptr.i.i14 = getelementptr inbounds ptr, ptr %8, i64 %conv.i11
  %9 = load ptr, ptr %add.ptr.i.i14, align 8
  %jointName = getelementptr inbounds i8, ptr %9, i64 504
  %call8 = tail call noundef zeroext i1 @_ZNKSt7__cxx1112basic_stringIcSt11char_traitsIcESaIcEE5emptyEv(ptr noundef nonnull align 8 dereferenceable(32) %jointName) #24
  br i1 %call8, label %do.end, label %do.body, !llvm.loop !63

do.end:                                           ; preds = %do.body, %_ZNK10glTFCommon3RefIN5glTF24NodeEEcvbEv.exit, %land.rhs
  %.fca.0.insert = insertvalue { ptr, i32 } poison, ptr %retval.sroa.0.0.copyload18, 0
  %.fca.1.insert = insertvalue { ptr, i32 } %.fca.0.insert, i32 %retval.sroa.7.0.copyload19, 1
  ret { ptr, i32 } %.fca.1.insert
}